; Function Attrs: mustprogress uwtable
define void @rocksdb_sstfilewriter_put_with_ts(ptr noundef readonly captures(none) %0, ptr noundef %1, i64 noundef %2, ptr noundef %3, i64 noundef %4, ptr noundef %5, i64 noundef %6, ptr noundef captures(none) %7) local_unnamed_addr #0 personality ptr @__gxx_personality_v0 {
  %9 = alloca %"class.rocksdb::Status", align 8
  %10 = alloca %"class.rocksdb::Slice", align 8
  %11 = alloca %"class.rocksdb::Slice", align 8
  %12 = alloca %"class.rocksdb::Slice", align 8
  call void @llvm.lifetime.start.p0(i64 16, ptr nonnull %9) #43
  %13 = load ptr, ptr %0, align 8, !tbaa !1058
  call void @llvm.lifetime.start.p0(i64 16, ptr nonnull %10) #43
  store ptr %1, ptr %10, align 8, !tbaa !251
  %14 = getelementptr inbounds nuw i8, ptr %10, i64 8
  store i64 %2, ptr %14, align 8, !tbaa !253
  call void @llvm.lifetime.start.p0(i64 16, ptr nonnull %11) #43
  store ptr %3, ptr %11, align 8, !tbaa !251
  %15 = getelementptr inbounds nuw i8, ptr %11, i64 8
  store i64 %4, ptr %15, align 8, !tbaa !253
  call void @llvm.lifetime.start.p0(i64 16, ptr nonnull %12) #43
  store ptr %5, ptr %12, align 8, !tbaa !251
  %16 = getelementptr inbounds nuw i8, ptr %12, i64 8
  store i64 %6, ptr %16, align 8, !tbaa !253
  call void @_ZN7rocksdb13SstFileWriter3PutERKNS_5SliceES3_S3_(ptr dead_on_unwind nonnull writable sret(%"class.rocksdb::Status") align 8 %9, ptr noundef nonnull align 8 dereferenceable(8) %13, ptr noundef nonnull align 8 dereferenceable(16) %10, ptr noundef nonnull align 8 dereferenceable(16) %11, ptr noundef nonnull align 8 dereferenceable(16) %12)
  %17 = invoke fastcc noundef zeroext i1 @_ZL9SaveErrorPPcRKN7rocksdb6StatusE(ptr noundef %7, ptr noundef nonnull align 8 dereferenceable(16) %9)
          to label %18 unwind label %21

18:                                               ; preds = %8
  %19 = getelementptr inbounds nuw i8, ptr %9, i64 8
  %20 = load ptr, ptr %19, align 8, !tbaa !25
  %.not.i.i = icmp eq ptr %20, null
  br i1 %.not.i.i, label %_ZN7rocksdb6StatusD2Ev.exit, label %_ZNKSt14default_deleteIA_KcEclIS0_EENSt9enable_ifIXsr14is_convertibleIPA_T_PS1_EE5valueEvE4typeEPS5_.exit.i.i

_ZNKSt14default_deleteIA_KcEclIS0_EENSt9enable_ifIXsr14is_convertibleIPA_T_PS1_EE5valueEvE4typeEPS5_.exit.i.i: ; preds = %18
  call void @_ZdaPv(ptr noundef nonnull %20) #45
  br label %_ZN7rocksdb6StatusD2Ev.exit

_ZN7rocksdb6StatusD2Ev.exit:                      ; preds = %18, %_ZNKSt14default_deleteIA_KcEclIS0_EENSt9enable_ifIXsr14is_convertibleIPA_T_PS1_EE5valueEvE4typeEPS5_.exit.i.i
  call void @llvm.lifetime.end.p0(i64 16, ptr nonnull %12) #43
  call void @llvm.lifetime.end.p0(i64 16, ptr nonnull %11) #43
  call void @llvm.lifetime.end.p0(i64 16, ptr nonnull %10) #43
  call void @llvm.lifetime.end.p0(i64 16, ptr nonnull %9) #43
  ret void

21:                                               ; preds = %8
  %22 = landingpad { ptr, i32 }
          cleanup
  %23 = getelementptr inbounds nuw i8, ptr %9, i64 8
  %24 = load ptr, ptr %23, align 8, !tbaa !25
  %.not.i.i9 = icmp eq ptr %24, null
  br i1 %.not.i.i9, label %_ZN7rocksdb6StatusD2Ev.exit11, label %_ZNKSt14default_deleteIA_KcEclIS0_EENSt9enable_ifIXsr14is_convertibleIPA_T_PS1_EE5valueEvE4typeEPS5_.exit.i.i10

_ZNKSt14default_deleteIA_KcEclIS0_EENSt9enable_ifIXsr14is_convertibleIPA_T_PS1_EE5valueEvE4typeEPS5_.exit.i.i10: ; preds = %21
  call void @_ZdaPv(ptr noundef nonnull %24) #45
  br label %_ZN7rocksdb6StatusD2Ev.exit11

_ZN7rocksdb6StatusD2Ev.exit11:                    ; preds = %21, %_ZNKSt14default_deleteIA_KcEclIS0_EENSt9enable_ifIXsr14is_convertibleIPA_T_PS1_EE5valueEvE4typeEPS5_.exit.i.i10
  call void @llvm.lifetime.end.p0(i64 16, ptr nonnull %12) #43
  call void @llvm.lifetime.end.p0(i64 16, ptr nonnull %11) #43
  call void @llvm.lifetime.end.p0(i64 16, ptr nonnull %10) #43
  call void @llvm.lifetime.end.p0(i64 16, ptr nonnull %9) #43
  resume { ptr, i32 } %22
}